target datalayout = "e-m:e-p270:32:32-p271:32:32-p272:64:64-i64:64-i128:128-f80:128-n8:16:32:64-S128"
target triple = "x86_64-pc-linux-gnu"

%struct.mbedtls_ssl_context = type { ptr, i32, i32, i32, i32, i32, ptr, ptr, ptr, ptr, ptr, ptr, ptr, ptr, ptr, ptr, ptr, ptr, ptr, ptr, ptr, ptr, ptr, ptr, ptr, ptr, ptr, ptr, ptr, ptr, ptr, ptr, ptr, i32, i64, i64, i16, i64, i64, i64, i64, i32, i32, i8, i8, i32, i8, ptr, ptr, ptr, ptr, ptr, ptr, ptr, i32, i64, i64, [8 x i8], i16, ptr, ptr, ptr, i64, i32, i64, [12 x i8], [12 x i8], [32 x i8], i8, i8, ptr, ptr, %union.mbedtls_ssl_user_data_t }
%union.mbedtls_ssl_user_data_t = type { i64 }
%struct.mbedtls_ssl_session = type { i8, i8, i8, i32, i64, i32, i64, [32 x i8], [48 x i8], ptr, i32, ptr, i64, i32, i64, i32, i8, i8, [48 x i8], ptr, i64, i32, %struct.mbedtls_ssl_tls13_application_secrets }
%struct.mbedtls_ssl_tls13_application_secrets = type { [64 x i8], [64 x i8], [64 x i8], [64 x i8] }

@.str = private unnamed_addr constant [130 x i8] c"generated/home/dtcxzyw/WorkSpace/Projects/compilers/llvm-opt-benchmark/bench/lief/bench_build/mbed_src/library/ssl_tls12_server.c\00", align 1
@.str.8 = private unnamed_addr constant [25 x i8] c"bad client hello message\00", align 1

; Function Attrs: nounwind uwtable
define internal i32 @ssl_parse_max_fragment_length_ext(ptr noundef %0, ptr noundef %1, i64 noundef %2) #0 {
  %4 = alloca i32, align 4
  %5 = alloca ptr, align 8
  %6 = alloca ptr, align 8
  %7 = alloca i64, align 8
  store ptr %0, ptr %5, align 8, !tbaa !3
  store ptr %1, ptr %6, align 8, !tbaa !8
  store i64 %2, ptr %7, align 8, !tbaa !10
  %8 = load i64, ptr %7, align 8, !tbaa !10
  %9 = icmp ne i64 %8, 1
  br i1 %9, label %16, label %10

10:                                               ; preds = %3
  %11 = load ptr, ptr %6, align 8, !tbaa !8
  %12 = getelementptr inbounds i8, ptr %11, i64 0
  %13 = load i8, ptr %12, align 1, !tbaa !56
  %14 = zext i8 %13 to i32
  %15 = icmp sge i32 %14, 5
  br i1 %15, label %16, label %20

16:                                               ; preds = %10, %3
  %17 = load ptr, ptr %5, align 8, !tbaa !3
  call void (ptr, i32, ptr, i32, ptr, ...) @mbedtls_debug_print_msg(ptr noundef %17, i32 noundef 1, ptr noundef @.str, i32 noundef 345, ptr noundef @.str.8)
  %18 = load ptr, ptr %5, align 8, !tbaa !3
  %19 = call i32 @mbedtls_ssl_send_alert_message(ptr noundef %18, i8 noundef zeroext 2, i8 noundef zeroext 47)
  store i32 -26112, ptr %4, align 4
  br label %28

20:                                               ; preds = %10
  %21 = load ptr, ptr %6, align 8, !tbaa !8
  %22 = getelementptr inbounds i8, ptr %21, i64 0
  %23 = load i8, ptr %22, align 1, !tbaa !56
  %24 = load ptr, ptr %5, align 8, !tbaa !3
  %25 = getelementptr inbounds nuw %struct.mbedtls_ssl_context, ptr %24, i32 0, i32 15
  %26 = load ptr, ptr %25, align 8, !tbaa !68
  %27 = getelementptr inbounds nuw %struct.mbedtls_ssl_session, ptr %26, i32 0, i32 0
  store i8 %23, ptr %27, align 8, !tbaa !143
  store i32 0, ptr %4, align 4
  br label %28

28:                                               ; preds = %20, %16
  %29 = load i32, ptr %4, align 4
  ret i32 %29
}