; Function Attrs: nounwind uwtable
define internal fastcc range(i32 -26112, 1) i32 @ssl_parse_max_fragment_length_ext(ptr noundef %0, ptr noundef readonly captures(none) %1, i64 noundef range(i64 0, 65536) %2) unnamed_addr #5 {
  %.not = icmp eq i64 %2, 1
  br i1 %.not, label %4, label %7

4:                                                ; preds = %3
  %5 = load i8, ptr %1, align 1, !tbaa !38
  %6 = icmp ugt i8 %5, 4
  br i1 %6, label %7, label %9

7:                                                ; preds = %4, %3
  tail call void (ptr, i32, ptr, i32, ptr, ...) @mbedtls_debug_print_msg(ptr noundef %0, i32 noundef 1, ptr noundef nonnull @.str, i32 noundef 345, ptr noundef nonnull @.str.8) #12
  %8 = tail call i32 @mbedtls_ssl_send_alert_message(ptr noundef %0, i8 noundef zeroext 2, i8 noundef zeroext 47) #12
  br label %12

9:                                                ; preds = %4
  %10 = getelementptr inbounds nuw i8, ptr %0, i64 104
  %11 = load ptr, ptr %10, align 8, !tbaa !60
  store i8 %5, ptr %11, align 8, !tbaa !105
  br label %12

12:                                               ; preds = %9, %7
  %.0 = phi i32 [ -26112, %7 ], [ 0, %9 ]
  ret i32 %.0
}